#include <math.h>
#include <stdio.h>
#include <stdlib.h>
#include <string.h>

int main(){
	int ROW,COL,a[100][100];
	scanf("%d%d",&ROW,&COL);
	for(int row=0;row<ROW;row++){
		for(int col=0;col<COL;col++){
			scanf("%d",&a[row][col]);
		}
	}
	for(int k=0;k<(ROW<COL?(ROW+1)/2:(COL+1)/2);k++){
		for(int col=k;col<COL-k-1;col++){
			printf("%d\n",a[k][col]);
		}
		for(int row=k;row<ROW-k-1;row++){
			printf("%d\n",a[row][COL-k-1]);
		}
		for(int col=COL-k-1;(col>k)&&(k!=1.0*(ROW+1)/2-1);col--){
			printf("%d\n",a[ROW-k-1][col]);
		}
		for(int row=ROW-k-1;(row>k)&&(k!=1.0*(COL+1)/2-1);row--){
			printf("%d\n",a[row][k]);
		}
	}
	if((ROW%2!=0&&ROW<=COL)||(COL%2!=0&&COL<=ROW)){
		printf("%d",a[ROW-(ROW<COL?(ROW+1)/2:(COL+1)/2)][COL-(ROW<COL?(ROW+1)/2:(COL+1)/2)]);
	}
	return 0;
}